; Function Attrs: mustprogress nofree norecurse nosync nounwind willreturn memory(argmem: readwrite) uwtable
define hidden void @_ZN17opencv_tensorflow12OpDef_ArgDef12InternalSwapEPS0_(ptr noundef nonnull align 8 captures(none) dereferenceable(72) %0, ptr noundef captures(none) %1) local_unnamed_addr #13 align 2 {
_ZNK6google8protobuf11MessageLite21GetArenaForAllocationEv.exit:
  %2 = getelementptr inbounds nuw i8, ptr %0, i64 8
  %3 = load i64, ptr %2, align 8, !tbaa !3
  %4 = getelementptr inbounds nuw i8, ptr %1, i64 8
  %5 = load i64, ptr %4, align 8, !tbaa !3
  store i64 %5, ptr %2, align 8, !tbaa !55
  store i64 %3, ptr %4, align 8, !tbaa !55
  %6 = getelementptr inbounds nuw i8, ptr %0, i64 16
  %7 = getelementptr inbounds nuw i8, ptr %1, i64 16
  %.sroa.0.0.copyload.i = load ptr, ptr %7, align 8, !tbaa !56
  %8 = load i64, ptr %6, align 8, !tbaa !56
  store i64 %8, ptr %7, align 8, !tbaa !56
  store ptr %.sroa.0.0.copyload.i, ptr %6, align 8, !tbaa !56
  %9 = getelementptr inbounds nuw i8, ptr %0, i64 24
  %10 = getelementptr inbounds nuw i8, ptr %1, i64 24
  %.sroa.0.0.copyload.i22 = load ptr, ptr %10, align 8, !tbaa !56
  %11 = load i64, ptr %9, align 8, !tbaa !56
  store i64 %11, ptr %10, align 8, !tbaa !56
  store ptr %.sroa.0.0.copyload.i22, ptr %9, align 8, !tbaa !56
  %12 = getelementptr inbounds nuw i8, ptr %0, i64 32
  %13 = getelementptr inbounds nuw i8, ptr %1, i64 32
  %.sroa.0.0.copyload.i23 = load ptr, ptr %13, align 8, !tbaa !56
  %14 = load i64, ptr %12, align 8, !tbaa !56
  store i64 %14, ptr %13, align 8, !tbaa !56
  store ptr %.sroa.0.0.copyload.i23, ptr %12, align 8, !tbaa !56
  %15 = getelementptr inbounds nuw i8, ptr %0, i64 40
  %16 = getelementptr inbounds nuw i8, ptr %1, i64 40
  %.sroa.0.0.copyload.i24 = load ptr, ptr %16, align 8, !tbaa !56
  %17 = load i64, ptr %15, align 8, !tbaa !56
  store i64 %17, ptr %16, align 8, !tbaa !56
  store ptr %.sroa.0.0.copyload.i24, ptr %15, align 8, !tbaa !56
  %18 = getelementptr inbounds nuw i8, ptr %0, i64 48
  %19 = getelementptr inbounds nuw i8, ptr %1, i64 48
  %.sroa.0.0.copyload.i25 = load ptr, ptr %19, align 8, !tbaa !56
  %20 = load i64, ptr %18, align 8, !tbaa !56
  store i64 %20, ptr %19, align 8, !tbaa !56
  store ptr %.sroa.0.0.copyload.i25, ptr %18, align 8, !tbaa !56
  %21 = getelementptr inbounds nuw i8, ptr %0, i64 56
  %22 = getelementptr inbounds nuw i8, ptr %1, i64 56
  %.0.copyload.i.i = load i32, ptr %21, align 8
  %23 = load i32, ptr %22, align 1
  store i32 %23, ptr %21, align 8
  store i32 %.0.copyload.i.i, ptr %22, align 1
  %24 = getelementptr inbounds nuw i8, ptr %0, i64 60
  %25 = getelementptr inbounds nuw i8, ptr %1, i64 60
  %.0.copyload.i.i.i = load i8, ptr %24, align 4
  %26 = load i8, ptr %25, align 1
  store i8 %26, ptr %24, align 4
  store i8 %.0.copyload.i.i.i, ptr %25, align 1
  ret void
}